; Function Attrs: mustprogress uwtable
define hidden noundef ptr @_ZN19smt2_pp_environment12pp_fdecl_refEP9func_decl(ptr noundef nonnull align 8 dereferenceable(56) %this, ptr nocapture noundef readonly %f) unnamed_addr #3 align 2 {
entry:
  %s.i = alloca %class.symbol, align 8
  %len = alloca i32, align 4
  call void @llvm.lifetime.start.p0(i64 8, ptr nonnull %s.i)
  %vtable.i = load ptr, ptr %this, align 8
  %vfn.i = getelementptr inbounds i8, ptr %vtable.i, i64 16
  %0 = load ptr, ptr %vfn.i, align 8
  %call.i = tail call noundef nonnull align 8 dereferenceable(976) ptr %0(ptr noundef nonnull align 8 dereferenceable(56) %this)
  %m_info.i.i.i.i = getelementptr inbounds i8, ptr %f, i64 24
  %1 = load ptr, ptr %m_info.i.i.i.i, align 8
  %cmp.i.i.i.i = icmp eq ptr %1, null
  br i1 %cmp.i.i.i.i, label %_ZNK9func_decl9is_skolemEv.exit.i, label %_ZNK4decl13get_family_idEv.exit.thread.i.i.i

_ZNK4decl13get_family_idEv.exit.thread.i.i.i:     ; preds = %entry
  %2 = load i32, ptr %1, align 8
  %cmp7.i.i.i = icmp eq i32 %2, 0
  br i1 %cmp7.i.i.i, label %_ZNK11ast_manager10is_impliesEPK9func_decl.exit.i, label %_ZNK9func_decl9is_skolemEv.exit.i

_ZNK11ast_manager10is_impliesEPK9func_decl.exit.i: ; preds = %_ZNK4decl13get_family_idEv.exit.thread.i.i.i
  %m_kind.i.i.i.i.i = getelementptr inbounds i8, ptr %1, i64 4
  %3 = load i32, ptr %m_kind.i.i.i.i.i, align 4
  switch i32 %3, label %_ZNK9func_decl9is_skolemEv.exit.i [
    i32 9, label %if.then.i
    i32 4, label %if.then5.i
  ]

if.then.i:                                        ; preds = %_ZNK11ast_manager10is_impliesEPK9func_decl.exit.i
  %call3.i = tail call noundef ptr @_ZN9format_ns9mk_stringER11ast_managerPKc(ptr noundef nonnull align 8 dereferenceable(976) %call.i, ptr noundef nonnull @.str.1)
  br label %_ZNK19smt2_pp_environment13pp_fdecl_nameEP9func_declRj.exit

if.then5.i:                                       ; preds = %_ZNK11ast_manager10is_impliesEPK9func_decl.exit.i
  %call6.i = tail call noundef ptr @_ZN9format_ns9mk_stringER11ast_managerPKc(ptr noundef nonnull align 8 dereferenceable(976) %call.i, ptr noundef nonnull @.str.2)
  br label %_ZNK19smt2_pp_environment13pp_fdecl_nameEP9func_declRj.exit

_ZNK9func_decl9is_skolemEv.exit.i:                ; preds = %_ZNK4decl13get_family_idEv.exit.thread.i.i.i, %_ZNK11ast_manager10is_impliesEPK9func_decl.exit.i, %entry
  %storemerge.in = getelementptr inbounds i8, ptr %f, i64 16
  %storemerge = load i64, ptr %storemerge.in, align 8
  store i64 %storemerge, ptr %s.i, align 8
  %call10.i = call noundef ptr @_ZNK19smt2_pp_environment13pp_fdecl_nameERK6symbolRjb(ptr noundef nonnull align 8 dereferenceable(56) %this, ptr noundef nonnull align 8 dereferenceable(8) %s.i, ptr noundef nonnull align 4 dereferenceable(4) %len, i1 zeroext poison)
  br label %_ZNK19smt2_pp_environment13pp_fdecl_nameEP9func_declRj.exit

_ZNK19smt2_pp_environment13pp_fdecl_nameEP9func_declRj.exit: ; preds = %if.then.i, %if.then5.i, %_ZNK9func_decl9is_skolemEv.exit.i
  %retval.0.i = phi ptr [ %call3.i, %if.then.i ], [ %call6.i, %if.then5.i ], [ %call10.i, %_ZNK9func_decl9is_skolemEv.exit.i ]
  call void @llvm.lifetime.end.p0(i64 8, ptr nonnull %s.i)
  %4 = load ptr, ptr %m_info.i.i.i.i, align 8
  %cmp.i = icmp eq ptr %4, null
  br i1 %cmp.i, label %return, label %_ZNK4decl13get_family_idEv.exit

_ZNK4decl13get_family_idEv.exit:                  ; preds = %_ZNK19smt2_pp_environment13pp_fdecl_nameEP9func_declRj.exit
  %5 = load i32, ptr %4, align 8
  %cmp = icmp eq i32 %5, -1
  br i1 %cmp, label %return, label %if.end

if.end:                                           ; preds = %_ZNK4decl13get_family_idEv.exit
  %call3 = call noundef ptr @_ZN19smt2_pp_environment12pp_signatureEP3appP9func_decl(ptr noundef nonnull align 8 dereferenceable(56) %this, ptr noundef %retval.0.i, ptr noundef nonnull %f)
  br label %return

return:                                           ; preds = %_ZNK19smt2_pp_environment13pp_fdecl_nameEP9func_declRj.exit, %_ZNK4decl13get_family_idEv.exit, %if.end
  %retval.0 = phi ptr [ %call3, %if.end ], [ %retval.0.i, %_ZNK4decl13get_family_idEv.exit ], [ %retval.0.i, %_ZNK19smt2_pp_environment13pp_fdecl_nameEP9func_declRj.exit ]
  ret ptr %retval.0
}